target datalayout = "e-m:e-p270:32:32-p271:32:32-p272:64:64-i64:64-i128:128-f80:128-n8:16:32:64-S128"
target triple = "x86_64-pc-linux-gnu"

%struct.dh_gen_ctx = type { ptr, ptr, i32, i32, i64, i64, ptr, i64, i32, i32, i32, i32, i32, i32, ptr, ptr, ptr, ptr, i32 }

@.str = private unnamed_addr constant [56 x i8] c"../openssl/providers/implementations/keymgmt/dh_kmgmt.c\00", align 1
@.str.1 = private unnamed_addr constant [20 x i8] c"safeprime-generator\00", align 1
@.str.2 = private unnamed_addr constant [7 x i8] c"gindex\00", align 1
@.str.3 = private unnamed_addr constant [9 x i8] c"pcounter\00", align 1
@.str.4 = private unnamed_addr constant [7 x i8] c"hindex\00", align 1
@.str.5 = private unnamed_addr constant [5 x i8] c"seed\00", align 1
@.str.6 = private unnamed_addr constant [6 x i8] c"qbits\00", align 1
@.str.7 = private unnamed_addr constant [7 x i8] c"digest\00", align 1
@.str.8 = private unnamed_addr constant [11 x i8] c"properties\00", align 1
@__func__.dh_gen_set_params = private unnamed_addr constant [18 x i8] c"dh_gen_set_params\00", align 1

; Function Attrs: nounwind uwtable
define internal i32 @dh_gen_set_params(ptr noundef %0, ptr noundef %1) #0 {
  %3 = alloca i32, align 4
  %4 = alloca ptr, align 8
  %5 = alloca ptr, align 8
  %6 = alloca ptr, align 8
  %7 = alloca ptr, align 8
  %8 = alloca i32, align 4
  store ptr %0, ptr %4, align 8, !tbaa !3
  store ptr %1, ptr %5, align 8, !tbaa !11
  call void @llvm.lifetime.start.p0(i64 8, ptr %6) #8
  %9 = load ptr, ptr %4, align 8, !tbaa !3
  store ptr %9, ptr %6, align 8, !tbaa !13
  call void @llvm.lifetime.start.p0(i64 8, ptr %7) #8
  %10 = load ptr, ptr %4, align 8, !tbaa !3
  %11 = load ptr, ptr %5, align 8, !tbaa !11
  %12 = call i32 @dh_gen_common_set_params(ptr noundef %10, ptr noundef %11)
  %13 = icmp ne i32 %12, 0
  br i1 %13, label %15, label %14

14:                                               ; preds = %2
  store i32 0, ptr %3, align 4
  store i32 1, ptr %8, align 4
  br label %57

15:                                               ; preds = %2
  %16 = load ptr, ptr %5, align 8, !tbaa !11
  %17 = call ptr @OSSL_PARAM_locate_const(ptr noundef %16, ptr noundef @.str.1)
  store ptr %17, ptr %7, align 8, !tbaa !11
  %18 = load ptr, ptr %7, align 8, !tbaa !11
  %19 = icmp ne ptr %18, null
  br i1 %19, label %20, label %27

20:                                               ; preds = %15
  %21 = load ptr, ptr %7, align 8, !tbaa !11
  %22 = load ptr, ptr %6, align 8, !tbaa !13
  %23 = getelementptr inbounds nuw %struct.dh_gen_ctx, ptr %22, i32 0, i32 10
  %24 = call i32 @OSSL_PARAM_get_int(ptr noundef %21, ptr noundef %23)
  %25 = icmp ne i32 %24, 0
  br i1 %25, label %27, label %26

26:                                               ; preds = %20
  store i32 0, ptr %3, align 4
  store i32 1, ptr %8, align 4
  br label %57

27:                                               ; preds = %20, %15
  %28 = load ptr, ptr %5, align 8, !tbaa !11
  %29 = call ptr @OSSL_PARAM_locate_const(ptr noundef %28, ptr noundef @.str.2)
  %30 = icmp ne ptr %29, null
  br i1 %30, label %55, label %31

31:                                               ; preds = %27
  %32 = load ptr, ptr %5, align 8, !tbaa !11
  %33 = call ptr @OSSL_PARAM_locate_const(ptr noundef %32, ptr noundef @.str.3)
  %34 = icmp ne ptr %33, null
  br i1 %34, label %55, label %35

35:                                               ; preds = %31
  %36 = load ptr, ptr %5, align 8, !tbaa !11
  %37 = call ptr @OSSL_PARAM_locate_const(ptr noundef %36, ptr noundef @.str.4)
  %38 = icmp ne ptr %37, null
  br i1 %38, label %55, label %39

39:                                               ; preds = %35
  %40 = load ptr, ptr %5, align 8, !tbaa !11
  %41 = call ptr @OSSL_PARAM_locate_const(ptr noundef %40, ptr noundef @.str.5)
  %42 = icmp ne ptr %41, null
  br i1 %42, label %55, label %43

43:                                               ; preds = %39
  %44 = load ptr, ptr %5, align 8, !tbaa !11
  %45 = call ptr @OSSL_PARAM_locate_const(ptr noundef %44, ptr noundef @.str.6)
  %46 = icmp ne ptr %45, null
  br i1 %46, label %55, label %47

47:                                               ; preds = %43
  %48 = load ptr, ptr %5, align 8, !tbaa !11
  %49 = call ptr @OSSL_PARAM_locate_const(ptr noundef %48, ptr noundef @.str.7)
  %50 = icmp ne ptr %49, null
  br i1 %50, label %55, label %51

51:                                               ; preds = %47
  %52 = load ptr, ptr %5, align 8, !tbaa !11
  %53 = call ptr @OSSL_PARAM_locate_const(ptr noundef %52, ptr noundef @.str.8)
  %54 = icmp ne ptr %53, null
  br i1 %54, label %55, label %56

55:                                               ; preds = %51, %47, %43, %39, %35, %31, %27
  call void @ERR_new()
  call void @ERR_set_debug(ptr noundef @.str, i32 noundef 679, ptr noundef @__func__.dh_gen_set_params)
  call void (i32, i32, ptr, ...) @ERR_set_error(i32 noundef 57, i32 noundef 524550, ptr noundef null)
  store i32 0, ptr %3, align 4
  store i32 1, ptr %8, align 4
  br label %57

56:                                               ; preds = %51
  store i32 1, ptr %3, align 4
  store i32 1, ptr %8, align 4
  br label %57

57:                                               ; preds = %56, %55, %26, %14
  call void @llvm.lifetime.end.p0(i64 8, ptr %7) #8
  call void @llvm.lifetime.end.p0(i64 8, ptr %6) #8
  %58 = load i32, ptr %3, align 4
  ret i32 %58
}