; Function Attrs: nounwind uwtable
define internal range(i32 0, 2) i32 @dh_gen_set_params(ptr noundef %0, ptr noundef %1) #0 {
  %3 = tail call fastcc i32 @dh_gen_common_set_params(ptr noundef %0, ptr noundef %1)
  %.not = icmp eq i32 %3, 0
  br i1 %.not, label %24, label %4

4:                                                ; preds = %2
  %5 = tail call ptr @OSSL_PARAM_locate_const(ptr noundef %1, ptr noundef nonnull @.str.1) #8
  %.not15 = icmp eq ptr %5, null
  br i1 %.not15, label %9, label %6

6:                                                ; preds = %4
  %7 = getelementptr inbounds nuw i8, ptr %0, i64 64
  %8 = tail call i32 @OSSL_PARAM_get_int(ptr noundef nonnull %5, ptr noundef nonnull %7) #8
  %.not16 = icmp eq i32 %8, 0
  br i1 %.not16, label %24, label %9

9:                                                ; preds = %6, %4
  %10 = tail call ptr @OSSL_PARAM_locate_const(ptr noundef %1, ptr noundef nonnull @.str.2) #8
  %.not17 = icmp eq ptr %10, null
  br i1 %.not17, label %11, label %23

11:                                               ; preds = %9
  %12 = tail call ptr @OSSL_PARAM_locate_const(ptr noundef %1, ptr noundef nonnull @.str.3) #8
  %.not18 = icmp eq ptr %12, null
  br i1 %.not18, label %13, label %23

13:                                               ; preds = %11
  %14 = tail call ptr @OSSL_PARAM_locate_const(ptr noundef %1, ptr noundef nonnull @.str.4) #8
  %.not19 = icmp eq ptr %14, null
  br i1 %.not19, label %15, label %23

15:                                               ; preds = %13
  %16 = tail call ptr @OSSL_PARAM_locate_const(ptr noundef %1, ptr noundef nonnull @.str.5) #8
  %.not20 = icmp eq ptr %16, null
  br i1 %.not20, label %17, label %23

17:                                               ; preds = %15
  %18 = tail call ptr @OSSL_PARAM_locate_const(ptr noundef %1, ptr noundef nonnull @.str.6) #8
  %.not21 = icmp eq ptr %18, null
  br i1 %.not21, label %19, label %23

19:                                               ; preds = %17
  %20 = tail call ptr @OSSL_PARAM_locate_const(ptr noundef %1, ptr noundef nonnull @.str.7) #8
  %.not22 = icmp eq ptr %20, null
  br i1 %.not22, label %21, label %23

21:                                               ; preds = %19
  %22 = tail call ptr @OSSL_PARAM_locate_const(ptr noundef %1, ptr noundef nonnull @.str.8) #8
  %.not23 = icmp eq ptr %22, null
  br i1 %.not23, label %24, label %23

23:                                               ; preds = %21, %19, %17, %15, %13, %11, %9
  tail call void @ERR_new() #8
  tail call void @ERR_set_debug(ptr noundef nonnull @.str, i32 noundef 679, ptr noundef nonnull @__func__.dh_gen_set_params) #8
  tail call void (i32, i32, ptr, ...) @ERR_set_error(i32 noundef 57, i32 noundef 524550, ptr noundef null) #8
  br label %24

24:                                               ; preds = %21, %6, %2, %23
  %.0 = phi i32 [ 0, %23 ], [ 0, %2 ], [ 0, %6 ], [ 1, %21 ]
  ret i32 %.0
}